; Function Attrs: nounwind uwtable
define internal noundef i32 @doh_done(ptr noundef %0, i32 noundef %1) #0 {
  %3 = getelementptr inbounds nuw i8, ptr %0, i64 208
  %4 = load ptr, ptr %3, align 8, !tbaa !87
  %5 = getelementptr inbounds nuw i8, ptr %0, i64 2520
  %6 = load i64, ptr %5, align 8, !tbaa !117
  %7 = tail call ptr @Curl_multi_get_handle(ptr noundef %4, i64 noundef %6) #8
  %.not = icmp eq ptr %7, null
  br i1 %.not, label %41, label %8

8:                                                ; preds = %2
  %9 = getelementptr inbounds nuw i8, ptr %7, i64 440
  %10 = load ptr, ptr %9, align 8, !tbaa !79
  %11 = getelementptr inbounds nuw i8, ptr %10, i64 1144
  %12 = load i32, ptr %11, align 8, !tbaa !88
  %13 = add i32 %12, -1
  store i32 %13, ptr %11, align 8, !tbaa !88
  %14 = getelementptr inbounds nuw i8, ptr %0, i64 2562
  %15 = load i64, ptr %14, align 2
  %16 = and i64 %15, 134217728
  %.not24 = icmp eq i64 %16, 0
  br i1 %.not24, label %25, label %17

17:                                               ; preds = %8
  %18 = getelementptr inbounds nuw i8, ptr %0, i64 4712
  %19 = load ptr, ptr %18, align 8, !tbaa !104
  %.not25 = icmp eq ptr %19, null
  br i1 %.not25, label %24, label %20

20:                                               ; preds = %17
  %21 = getelementptr inbounds nuw i8, ptr %19, i64 8
  %22 = load i32, ptr %21, align 8, !tbaa !108
  %23 = icmp sgt i32 %22, 0
  br i1 %23, label %24, label %25

24:                                               ; preds = %20, %17
  tail call void (ptr, ptr, ...) @Curl_infof(ptr noundef nonnull %0, ptr noundef nonnull @.str.7, i32 noundef %13) #8
  br label %25

25:                                               ; preds = %24, %20, %8
  %.not29 = icmp eq i32 %1, 0
  br i1 %.not29, label %38, label %26

26:                                               ; preds = %25
  %27 = load i64, ptr %14, align 2
  %28 = and i64 %27, 134217728
  %.not26 = icmp eq i64 %28, 0
  br i1 %.not26, label %38, label %29

29:                                               ; preds = %26
  %30 = getelementptr inbounds nuw i8, ptr %0, i64 4712
  %31 = load ptr, ptr %30, align 8, !tbaa !104
  %.not27 = icmp eq ptr %31, null
  br i1 %.not27, label %36, label %32

32:                                               ; preds = %29
  %33 = getelementptr inbounds nuw i8, ptr %31, i64 8
  %34 = load i32, ptr %33, align 8, !tbaa !108
  %35 = icmp sgt i32 %34, 0
  br i1 %35, label %36, label %38

36:                                               ; preds = %32, %29
  %37 = tail call ptr @curl_easy_strerror(i32 noundef %1) #8
  tail call void (ptr, ptr, ...) @Curl_infof(ptr noundef nonnull %0, ptr noundef nonnull @.str.8, ptr noundef %37) #8
  br label %38

38:                                               ; preds = %26, %32, %36, %25
  %39 = load i32, ptr %11, align 8, !tbaa !88
  %.not28 = icmp eq i32 %39, 0
  br i1 %.not28, label %40, label %41

40:                                               ; preds = %38
  tail call void @Curl_expire(ptr noundef nonnull %7, i64 noundef 0, i32 noundef 8) #8
  br label %41

41:                                               ; preds = %38, %40, %2
  ret i32 0
}